target datalayout = "e-m:e-p270:32:32-p271:32:32-p272:64:64-i64:64-i128:128-f80:128-n8:16:32:64-S128"
target triple = "x86_64-pc-linux-gnu"

%"class.arrow::MemoryPool" = type { ptr }
%"class.std::__cxx11::basic_string" = type { %"struct.std::__cxx11::basic_string<char>::_Alloc_hider", i64, %union.anon }
%"struct.std::__cxx11::basic_string<char>::_Alloc_hider" = type { ptr }
%union.anon = type { i64, [8 x i8] }
%"class.arrow::LoggingMemoryPool" = type { %"class.arrow::MemoryPool", ptr }

; Function Attrs: mustprogress uwtable
define void @_ZNK5arrow17LoggingMemoryPool12backend_nameB5cxx11Ev(ptr dead_on_unwind noalias writable sret(%"class.std::__cxx11::basic_string") align 8 %0, ptr noundef nonnull align 8 dereferenceable(16) %1) unnamed_addr #5 align 2 {
  %3 = alloca ptr, align 8
  %4 = alloca ptr, align 8
  store ptr %0, ptr %3, align 8
  store ptr %1, ptr %4, align 8, !tbaa !63
  %5 = load ptr, ptr %4, align 8
  %6 = getelementptr inbounds nuw %"class.arrow::LoggingMemoryPool", ptr %5, i32 0, i32 1
  %7 = load ptr, ptr %6, align 8, !tbaa !65
  %8 = load ptr, ptr %7, align 8, !tbaa !21
  %9 = getelementptr inbounds ptr, ptr %8, i64 11
  %10 = load ptr, ptr %9, align 8
  call void %10(ptr dead_on_unwind writable sret(%"class.std::__cxx11::basic_string") align 8 %0, ptr noundef nonnull align 8 dereferenceable(8) %7)
  ret void
}